; Function Attrs: mustprogress nounwind uwtable
define dso_local void @_ZNK4llvm11ms_demangle10SymbolNode6outputERNS_16itanium_demangle12OutputBufferENS0_11OutputFlagsE(ptr nocapture noundef nonnull readonly align 8 dereferenceable(24) %0, ptr noundef nonnull align 8 dereferenceable(36) %1, i32 noundef %2) unnamed_addr #0 align 2 {
  %4 = getelementptr inbounds nuw i8, ptr %0, i64 16
  %5 = load ptr, ptr %4, align 8
  %6 = load ptr, ptr %5, align 8
  %7 = getelementptr inbounds i8, ptr %6, i64 16
  %8 = load ptr, ptr %7, align 8
  tail call void %8(ptr noundef nonnull align 8 dereferenceable(24) %5, ptr noundef nonnull align 8 dereferenceable(36) %1, i32 noundef %2) #15
  ret void
}